ccopy_reg
_reconstructor
p0
(cpandas.core.frame
DataFrame
p1
c__builtin__
object
p2
Ntp3
Rp4
(dp5
S'_metadata'
p6
(lp7
sS'_typ'
p8
S'dataframe'
p9
sS'_data'
p10
g0
(cpandas.core.internals
BlockManager
p11
g2
Ntp12
Rp13
((lp14
cpandas.core.indexes.base
_new_Index
p15
(cpandas.core.indexes.base
Index
p16
(dp17
S'data'
p18
cnumpy.core.multiarray
_reconstruct
p19
(cnumpy
ndarray
p20
(I0
tp21
S'b'
p22
tp23
Rp24
(I1
(I3
tp25
cnumpy
dtype
p26
(S'O8'
p27
I0
I1
tp28
Rp29
(I3
S'|'
p30
NNNI-1
I-1
I63
tp31
bI00
(lp32
S'origin'
p33
aS'destination'
p34
aS'distance'
p35
atp36
bsS'name'
p37
Nstp38
Rp39
ag15
(cpandas.core.indexes.numeric
Int64Index
p40
(dp41
g18
g19
(g20
(I0
tp42
g22
tp43
Rp44
(I1
(I2
tp45
g26
(S'i8'
p46
I0
I1
tp47
Rp48
(I3
S'<'
p49
NNNI-1
I-1
I0
tp50
bI00
S'\x00\x00\x00\x00\x00\x00\x00\x00\x01\x00\x00\x00\x00\x00\x00\x00'
p51
tp52
bsg37
Nstp53
Rp54
a(lp55
g19
(g20
(I0
tp56
g22
tp57
Rp58
(I1
(I2
I2
tp59
g48
I00
S'\x01\x00\x00\x00\x00\x00\x00\x00\x02\x00\x00\x00\x00\x00\x00\x00\x02\x00\x00\x00\x00\x00\x00\x00\x01\x00\x00\x00\x00\x00\x00\x00'
p60
tp61
bag19
(g20
(I0
tp62
g22
tp63
Rp64
(I1
(I1
I2
tp65
g48
I00
S'\x90\x8e\x00\x00\x00\x00\x00\x00\xd8\x81\x00\x00\x00\x00\x00\x00'
p66
tp67
ba(lp68
g15
(g16
(dp69
g18
g19
(g20
(I0
tp70
g22
tp71
Rp72
(I1
(I2
tp73
g29
I00
(lp74
g33
ag34
atp75
bsg37
Nstp76
Rp77
ag15
(g16
(dp78
g18
g19
(g20
(I0
tp79
g22
tp80
Rp81
(I1
(I1
tp82
g29
I00
(lp83
g35
atp84
bsg37
Nstp85
Rp86
a(dp87
S'0.14.1'
p88
(dp89
S'axes'
p90
g14
sS'blocks'
p91
(lp92
(dp93
S'mgr_locs'
p94
c__builtin__
slice
p95
(I0
I2
I1
tp96
Rp97
sS'values'
p98
g58
sa(dp99
g94
g95
(I2
I3
I1
tp100
Rp101
sg98
g64
sasstp102
bsb.