ccopy_reg
_reconstructor
p0
(cpandas.core.frame
DataFrame
p1
c__builtin__
object
p2
Ntp3
Rp4
(dp5
S'_metadata'
p6
(lp7
sS'_typ'
p8
S'dataframe'
p9
sS'_data'
p10
g0
(cpandas.core.internals
BlockManager
p11
g2
Ntp12
Rp13
((lp14
cpandas.core.indexes.base
_new_Index
p15
(cpandas.core.indexes.range
RangeIndex
p16
(dp17
S'start'
p18
I0
sS'step'
p19
I1
sS'stop'
p20
I1
sS'name'
p21
Nstp22
Rp23
ag15
(g16
(dp24
g18
I0
sg19
I1
sg20
I2
sg21
Nstp25
Rp26
a(lp27
cnumpy.core.multiarray
_reconstruct
p28
(cnumpy
ndarray
p29
(I0
tp30
S'b'
p31
tp32
Rp33
(I1
(I1
I2
tp34
cnumpy
dtype
p35
(S'i8'
p36
I0
I1
tp37
Rp38
(I3
S'<'
p39
NNNI-1
I-1
I0
tp40
bI00
S'\x01\x00\x00\x00\x00\x00\x00\x00\x02\x00\x00\x00\x00\x00\x00\x00'
p41
tp42
ba(lp43
g15
(g16
(dp44
g18
I0
sg19
I1
sg20
I1
sg21
Nstp45
Rp46
a(dp47
S'0.14.1'
p48
(dp49
S'axes'
p50
g14
sS'blocks'
p51
(lp52
(dp53
S'mgr_locs'
p54
c__builtin__
slice
p55
(I0
I1
I1
tp56
Rp57
sS'values'
p58
g33
sasstp59
bsb.