(lp0
cnumpy.core.multiarray
scalar
p1
(cnumpy
dtype
p2
(S'f4'
p3
I0
I1
tp4
Rp5
(I3
S'<'
p6
NNNI-1
I-1
I0
tp7
bS'\x00\x00\x00\x00'
p8
tp9
Rp10
ag1
(g5
S'v\x7f\xddB'
p11
tp12
Rp13
ag1
(g5
S')p\xcbB'
p14
tp15
Rp16
ag1
(g5
S'@}9='
p17
tp18
Rp19
ag1
(g5
S'\\\xee\xb5='
p20
tp21
Rp22
ag1
(g5
S'g>\x16='
p23
tp24
Rp25
ag1
(g5
S'\x00\x00\x00\x00'
p26
tp27
Rp28
ag1
(g5
S'\x00\x00\x00\x00'
p29
tp30
Rp31
ag1
(g5
S'\x80\x89\x0b>'
p32
tp33
Rp34
ag1
(g5
S'\xb3>\x1a>'
p35
tp36
Rp37
ag1
(g5
S'\x00\x00\x00\x00'
p38
tp39
Rp40
ag1
(g5
S'\x00\x00\x00\x00'
p41
tp42
Rp43
ag1
(g5
S'k}\xcd<'
p44
tp45
Rp46
ag1
(g5
S'\x934k@'
p47
tp48
Rp49
ag1
(g5
S'\xb1\xe7\xbb@'
p50
tp51
Rp52
ag1
(g5
S'\x00\x00\x00\x00'
p53
tp54
Rp55
ag1
(g5
S'\x00\x00\x00\x00'
p56
tp57
Rp58
ag1
(g5
S'I\xac;A'
p59
tp60
Rp61
ag1
(g5
S'\xb1\xe7\xbb@'
p62
tp63
Rp64
ag1
(g5
S')\x98\xba='
p65
tp66
Rp67
ag1
(g5
S'\x00\x00\x00\x00'
p68
tp69
Rp70
ag1
(g5
S'\x0c\xaa(A'
p71
tp72
Rp73
ag1
(g5
S'\x1d\xd4)A'
p74
tp75
Rp76
ag1
(g5
S'\x00\x00\x00\x00'
p77
tp78
Rp79
ag1
(g5
S'k}\xaf<'
p80
tp81
Rp82
ag1
(g5
S'ZhVA'
p83
tp84
Rp85
ag1
(g5
S'\x8b\x9btA'
p86
tp87
Rp88
ag1
(g5
S'\xa8_]='
p89
tp90
Rp91
ag1
(g5
S'\x8c\r\x02>'
p92
tp93
Rp94
ag1
(g5
S'\xbe\xb7\x93A'
p95
tp96
Rp97
ag1
(g5
S'\xa7\xcf\x88A'
p98
tp99
Rp100
ag1
(g5
S'7\xd0a>'
p101
tp102
Rp103
ag1
(g5
S'}\x08#='
p104
tp105
Rp106
ag1
(g5
S'=$\x9aA'
p107
tp108
Rp109
ag1
(g5
S'\xbb\xc9\xa1A'
p110
tp111
Rp112
ag1
(g5
S'\x00\x00\x00\x00'
p113
tp114
Rp115
ag1
(g5
S'\xc0s\xc7='
p116
tp117
Rp118
ag1
(g5
S'\xee\x0e\xa6A'
p119
tp120
Rp121
ag1
(g5
S'\xef{\xd2A'
p122
tp123
Rp124
ag1
(g5
S'\x00\x00\x00\x00'
p125
tp126
Rp127
ag1
(g5
S'\xd6!\xa0<'
p128
tp129
Rp130
ag1
(g5
S't\xb3\xe0A'
p131
tp132
Rp133
ag1
(g5
S'\xc2\xd5\xf6A'
p134
tp135
Rp136
ag1
(g5
S'\x1b\x14U>'
p137
tp138
Rp139
ag1
(g5
S'\xf5\x9f?>'
p140
tp141
Rp142
ag1
(g5
S'\x82\xb2\xf6A'
p143
tp144
Rp145
ag1
(g5
S'!\x82\xeeA'
p146
tp147
Rp148
ag1
(g5
S'\x00\x00\x00\x00'
p149
tp150
Rp151
ag1
(g5
S'\x00\x00\x00\x00'
p152
tp153
Rp154
ag1
(g5
S'\x082\xedA'
p155
tp156
Rp157
ag1
(g5
S'-_\xf0A'
p158
tp159
Rp160
ag1
(g5
S'\x00\x00\x00\x00'
p161
tp162
Rp163
ag1
(g5
S'\xabF\xd0='
p164
tp165
Rp166
ag1
(g5
S's?\xf1A'
p167
tp168
Rp169
ag1
(g5
S'4\xe7\xefA'
p170
tp171
Rp172
ag1
(g5
S'\x00\x00\x00\x00'
p173
tp174
Rp175
ag1
(g5
S'\xcb\xd3<>'
p176
tp177
Rp178
ag1
(g5
S'\x89\x84\xefA'
p179
tp180
Rp181
ag1
(g5
S'\x97\xf5\xefA'
p182
tp183
Rp184
ag1
(g5
S'\x00\x00\x00\x00'
p185
tp186
Rp187
ag1
(g5
S'\x03ng>'
p188
tp189
Rp190
ag1
(g5
S'"D\xf0A'
p191
tp192
Rp193
ag1
(g5
S'(\xfc\xefA'
p194
tp195
Rp196
ag1
(g5
S'\xc8\xd9\xa2='
p197
tp198
Rp199
ag1
(g5
S'\x00\x00\x00\x00'
p200
tp201
Rp202
ag1
(g5
S'^\xf0\xefA'
p203
tp204
Rp205
ag1
(g5
S'w\xfd\xefA'
p206
tp207
Rp208
ag1
(g5
S'\xf60}<'
p209
tp210
Rp211
ag1
(g5
S'\xd5\x1a#='
p212
tp213
Rp214
ag1
(g5
S'\xab\x15\xf0A'
p215
tp216
Rp217
ag1
(g5
S'\x93\xf0\xefA'
p218
tp219
Rp220
ag1
(g5
S'\x00\x00\x00\x00'
p221
tp222
Rp223
ag1
(g5
S'z\x85a>'
p224
tp225
Rp226
ag1
(g5
S'\x11\x06\xf0A'
p227
tp228
Rp229
ag1
(g5
S'\x15\x08\xf0A'
p230
tp231
Rp232
ag1
(g5
S'\x00\x00\x00\x00'
p233
tp234
Rp235
ag1
(g5
S'\xb8\x99h<'
p236
tp237
Rp238
ag1
(g5
S'\x96\x0f\xf0A'
p239
tp240
Rp241
ag1
(g5
S'\x97\x08\xf0A'
p242
tp243
Rp244
ag1
(g5
S'\x00\x00\x00\x00'
p245
tp246
Rp247
ag1
(g5
S'\xe8\xd0\xf8;'
p248
tp249
Rp250
ag1
(g5
S'\xae\xf2\xefA'
p251
tp252
Rp253
ag1
(g5
S'\xc8\x0f\xf0A'
p254
tp255
Rp256
ag1
(g5
S'g\xf8(='
p257
tp258
Rp259
ag1
(g5
S'6f[>'
p260
tp261
Rp262
ag1
(g5
S'\x82\xf1\xefA'
p263
tp264
Rp265
ag1
(g5
S'@\xf0\xefA'
p266
tp267
Rp268
ag1
(g5
S'\x00\x00\x00\x00'
p269
tp270
Rp271
ag1
(g5
S'j\x1a\x89='
p272
tp273
Rp274
ag1
(g5
S'l\xef\xefA'
p275
tp276
Rp277
ag1
(g5
S'?\xf7\xefA'
p278
tp279
Rp280
ag1
(g5
S'\x13Li>'
p281
tp282
Rp283
ag1
(g5
S'\x8e}\x99='
p284
tp285
Rp286
ag1
(g5
S'\xe4\xf0\xefA'
p287
tp288
Rp289
ag1
(g5
S'\xba\xec\xefA'
p290
tp291
Rp292
ag1
(g5
S'\xd1\xc4%>'
p293
tp294
Rp295
ag1
(g5
S'\xe9\x0c@>'
p296
tp297
Rp298
ag1
(g5
S'\xfc\xf3\xefA'
p299
tp300
Rp301
ag1
(g5
S'\x03\xf9\xefA'
p302
tp303
Rp304
ag1
(g5
S'\x03!j>'
p305
tp306
Rp307
ag1
(g5
S'\x00d\x01>'
p308
tp309
Rp310
ag1
(g5
S'\xa2\x0c\xf0A'
p311
tp312
Rp313
ag1
(g5
S',\xf1\xefA'
p314
tp315
Rp316
ag1
(g5
S't\x92d='
p317
tp318
Rp319
ag1
(g5
S'\x00\x00\x00\x00'
p320
tp321
Rp322
ag1
(g5
S'\xd4\x0c\xf0A'
p323
tp324
Rp325
ag1
(g5
S'\x02\n\xf0A'
p326
tp327
Rp328
ag1
(g5
S'\xb4\xd1\x03='
p329
tp330
Rp331
ag1
(g5
S'7b\x12>'
p332
tp333
Rp334
ag1
(g5
S'IT\xea='
p335
tp336
Rp337
ag1
(g5
S'\x00\x00\x00\x00'
p338
tp339
Rp340
ag1
(g5
S'\xc6\n<>'
p341
tp342
Rp343
a.